target datalayout = "e-m:e-p270:32:32-p271:32:32-p272:64:64-i64:64-i128:128-f80:128-n8:16:32:64-S128"
target triple = "x86_64-pc-linux-gnu"

@hf_openflow_v6_flow_desc_length = internal global i32 0, align 4
@hf_openflow_v6_flow_desc_table_id = internal global i32 0, align 4
@hf_openflow_v6_flow_desc_pad = internal global i32 0, align 4
@hf_openflow_v6_flow_desc_priority = internal global i32 0, align 4
@hf_openflow_v6_flow_desc_idle_timeout = internal global i32 0, align 4
@hf_openflow_v6_flow_desc_hard_timeout = internal global i32 0, align 4
@hf_openflow_v6_flow_desc_flags = internal global i32 0, align 4
@hf_openflow_v6_flow_desc_flags_send_flow_rem = internal global i32 0, align 4
@hf_openflow_v6_flow_desc_flags_check_overlap = internal global i32 0, align 4
@hf_openflow_v6_flow_desc_flags_reset_counts = internal global i32 0, align 4
@hf_openflow_v6_flow_desc_flags_no_packet_counts = internal global i32 0, align 4
@hf_openflow_v6_flow_desc_flags_no_byte_counts = internal global i32 0, align 4
@hf_openflow_v6_flow_desc_importance = internal global i32 0, align 4
@hf_openflow_v6_flow_desc_pad2 = internal global i32 0, align 4
@hf_openflow_v6_flow_desc_cookie = internal global i32 0, align 4
@ett_openflow_v6_flow_desc = internal global i32 0, align 4
@ett_openflow_v6_flow_desc_flags = internal global i32 0, align 4
@.str.1620 = private unnamed_addr constant [10 x i8] c"Flow desc\00", align 1

; Function Attrs: null_pointer_is_valid sspstrong uwtable
define internal i32 @dissect_openflow_flow_desc_v6(ptr noundef %0, ptr noundef %1, ptr noundef %2, i32 noundef %3, i16 noundef zeroext %4) #0 {
  %6 = alloca i32, align 4
  %7 = alloca ptr, align 8
  %8 = alloca ptr, align 8
  %9 = alloca ptr, align 8
  %10 = alloca i32, align 4
  %11 = alloca i16, align 2
  %12 = alloca ptr, align 8
  %13 = alloca ptr, align 8
  %14 = alloca ptr, align 8
  %15 = alloca i32, align 4
  %16 = alloca i32, align 4
  %17 = alloca i32, align 4
  store ptr %0, ptr %7, align 8
  store ptr %1, ptr %8, align 8
  store ptr %2, ptr %9, align 8
  store i32 %3, ptr %10, align 4
  store i16 %4, ptr %11, align 2
  call void @llvm.lifetime.start.p0(i64 8, ptr %12) #5
  call void @llvm.lifetime.start.p0(i64 8, ptr %13) #5
  call void @llvm.lifetime.start.p0(i64 8, ptr %14) #5
  call void @llvm.lifetime.start.p0(i64 4, ptr %15) #5
  call void @llvm.lifetime.start.p0(i64 4, ptr %16) #5
  %18 = load ptr, ptr %9, align 8
  %19 = load ptr, ptr %7, align 8
  %20 = load i32, ptr %10, align 4
  %21 = load i32, ptr @ett_openflow_v6_flow_desc, align 4
  %22 = call ptr @proto_tree_add_subtree(ptr noundef %18, ptr noundef %19, i32 noundef %20, i32 noundef -1, i32 noundef %21, ptr noundef %12, ptr noundef @.str.1620)
  store ptr %22, ptr %13, align 8
  %23 = load ptr, ptr %13, align 8
  %24 = load i32, ptr @hf_openflow_v6_flow_desc_length, align 4
  %25 = load ptr, ptr %7, align 8
  %26 = load i32, ptr %10, align 4
  %27 = call ptr @proto_tree_add_item_ret_uint(ptr noundef %23, i32 noundef %24, ptr noundef %25, i32 noundef %26, i32 noundef 2, i32 noundef 0, ptr noundef %15)
  %28 = load i32, ptr %10, align 4
  %29 = load i32, ptr %15, align 4
  %30 = add i32 %28, %29
  store i32 %30, ptr %16, align 4
  %31 = load ptr, ptr %12, align 8
  %32 = load i32, ptr %15, align 4
  call void @proto_item_set_len(ptr noundef %31, i32 noundef %32)
  %33 = load i32, ptr %10, align 4
  %34 = add i32 %33, 2
  store i32 %34, ptr %10, align 4
  %35 = load ptr, ptr %13, align 8
  %36 = load i32, ptr @hf_openflow_v6_flow_desc_pad2, align 4
  %37 = load ptr, ptr %7, align 8
  %38 = load i32, ptr %10, align 4
  %39 = call ptr @proto_tree_add_item(ptr noundef %35, i32 noundef %36, ptr noundef %37, i32 noundef %38, i32 noundef 2, i32 noundef 0)
  %40 = load i32, ptr %10, align 4
  %41 = add i32 %40, 2
  store i32 %41, ptr %10, align 4
  %42 = load ptr, ptr %13, align 8
  %43 = load i32, ptr @hf_openflow_v6_flow_desc_table_id, align 4
  %44 = load ptr, ptr %7, align 8
  %45 = load i32, ptr %10, align 4
  %46 = call ptr @proto_tree_add_item(ptr noundef %42, i32 noundef %43, ptr noundef %44, i32 noundef %45, i32 noundef 1, i32 noundef 0)
  %47 = load i32, ptr %10, align 4
  %48 = add i32 %47, 1
  store i32 %48, ptr %10, align 4
  %49 = load ptr, ptr %13, align 8
  %50 = load i32, ptr @hf_openflow_v6_flow_desc_pad, align 4
  %51 = load ptr, ptr %7, align 8
  %52 = load i32, ptr %10, align 4
  %53 = call ptr @proto_tree_add_item(ptr noundef %49, i32 noundef %50, ptr noundef %51, i32 noundef %52, i32 noundef 1, i32 noundef 0)
  %54 = load i32, ptr %10, align 4
  %55 = add i32 %54, 1
  store i32 %55, ptr %10, align 4
  %56 = load ptr, ptr %13, align 8
  %57 = load i32, ptr @hf_openflow_v6_flow_desc_priority, align 4
  %58 = load ptr, ptr %7, align 8
  %59 = load i32, ptr %10, align 4
  %60 = call ptr @proto_tree_add_item(ptr noundef %56, i32 noundef %57, ptr noundef %58, i32 noundef %59, i32 noundef 2, i32 noundef 0)
  %61 = load i32, ptr %10, align 4
  %62 = add i32 %61, 2
  store i32 %62, ptr %10, align 4
  %63 = load ptr, ptr %13, align 8
  %64 = load i32, ptr @hf_openflow_v6_flow_desc_idle_timeout, align 4
  %65 = load ptr, ptr %7, align 8
  %66 = load i32, ptr %10, align 4
  %67 = call ptr @proto_tree_add_item(ptr noundef %63, i32 noundef %64, ptr noundef %65, i32 noundef %66, i32 noundef 2, i32 noundef 0)
  %68 = load i32, ptr %10, align 4
  %69 = add i32 %68, 2
  store i32 %69, ptr %10, align 4
  %70 = load ptr, ptr %13, align 8
  %71 = load i32, ptr @hf_openflow_v6_flow_desc_hard_timeout, align 4
  %72 = load ptr, ptr %7, align 8
  %73 = load i32, ptr %10, align 4
  %74 = call ptr @proto_tree_add_item(ptr noundef %70, i32 noundef %71, ptr noundef %72, i32 noundef %73, i32 noundef 2, i32 noundef 0)
  %75 = load i32, ptr %10, align 4
  %76 = add i32 %75, 2
  store i32 %76, ptr %10, align 4
  %77 = load ptr, ptr %13, align 8
  %78 = load i32, ptr @hf_openflow_v6_flow_desc_flags, align 4
  %79 = load ptr, ptr %7, align 8
  %80 = load i32, ptr %10, align 4
  %81 = call ptr @proto_tree_add_item(ptr noundef %77, i32 noundef %78, ptr noundef %79, i32 noundef %80, i32 noundef 2, i32 noundef 0)
  store ptr %81, ptr %12, align 8
  %82 = load ptr, ptr %12, align 8
  %83 = load i32, ptr @ett_openflow_v6_flow_desc_flags, align 4
  %84 = call ptr @proto_item_add_subtree(ptr noundef %82, i32 noundef %83)
  store ptr %84, ptr %14, align 8
  %85 = load ptr, ptr %14, align 8
  %86 = load i32, ptr @hf_openflow_v6_flow_desc_flags_send_flow_rem, align 4
  %87 = load ptr, ptr %7, align 8
  %88 = load i32, ptr %10, align 4
  %89 = call ptr @proto_tree_add_item(ptr noundef %85, i32 noundef %86, ptr noundef %87, i32 noundef %88, i32 noundef 2, i32 noundef 0)
  %90 = load ptr, ptr %14, align 8
  %91 = load i32, ptr @hf_openflow_v6_flow_desc_flags_check_overlap, align 4
  %92 = load ptr, ptr %7, align 8
  %93 = load i32, ptr %10, align 4
  %94 = call ptr @proto_tree_add_item(ptr noundef %90, i32 noundef %91, ptr noundef %92, i32 noundef %93, i32 noundef 2, i32 noundef 0)
  %95 = load ptr, ptr %14, align 8
  %96 = load i32, ptr @hf_openflow_v6_flow_desc_flags_reset_counts, align 4
  %97 = load ptr, ptr %7, align 8
  %98 = load i32, ptr %10, align 4
  %99 = call ptr @proto_tree_add_item(ptr noundef %95, i32 noundef %96, ptr noundef %97, i32 noundef %98, i32 noundef 2, i32 noundef 0)
  %100 = load ptr, ptr %14, align 8
  %101 = load i32, ptr @hf_openflow_v6_flow_desc_flags_no_packet_counts, align 4
  %102 = load ptr, ptr %7, align 8
  %103 = load i32, ptr %10, align 4
  %104 = call ptr @proto_tree_add_item(ptr noundef %100, i32 noundef %101, ptr noundef %102, i32 noundef %103, i32 noundef 2, i32 noundef 0)
  %105 = load ptr, ptr %14, align 8
  %106 = load i32, ptr @hf_openflow_v6_flow_desc_flags_no_byte_counts, align 4
  %107 = load ptr, ptr %7, align 8
  %108 = load i32, ptr %10, align 4
  %109 = call ptr @proto_tree_add_item(ptr noundef %105, i32 noundef %106, ptr noundef %107, i32 noundef %108, i32 noundef 2, i32 noundef 0)
  %110 = load i32, ptr %10, align 4
  %111 = add i32 %110, 2
  store i32 %111, ptr %10, align 4
  %112 = load ptr, ptr %13, align 8
  %113 = load i32, ptr @hf_openflow_v6_flow_desc_importance, align 4
  %114 = load ptr, ptr %7, align 8
  %115 = load i32, ptr %10, align 4
  %116 = call ptr @proto_tree_add_item(ptr noundef %112, i32 noundef %113, ptr noundef %114, i32 noundef %115, i32 noundef 2, i32 noundef 0)
  %117 = load i32, ptr %10, align 4
  %118 = add i32 %117, 2
  store i32 %118, ptr %10, align 4
  %119 = load ptr, ptr %13, align 8
  %120 = load i32, ptr @hf_openflow_v6_flow_desc_cookie, align 4
  %121 = load ptr, ptr %7, align 8
  %122 = load i32, ptr %10, align 4
  %123 = call ptr @proto_tree_add_item(ptr noundef %119, i32 noundef %120, ptr noundef %121, i32 noundef %122, i32 noundef 8, i32 noundef 0)
  %124 = load i32, ptr %10, align 4
  %125 = add i32 %124, 8
  store i32 %125, ptr %10, align 4
  %126 = load ptr, ptr %7, align 8
  %127 = load ptr, ptr %8, align 8
  %128 = load ptr, ptr %13, align 8
  %129 = load i32, ptr %10, align 4
  %130 = load i16, ptr %11, align 2
  %131 = call i32 @dissect_openflow_match_v6(ptr noundef %126, ptr noundef %127, ptr noundef %128, i32 noundef %129, i16 noundef zeroext %130)
  store i32 %131, ptr %10, align 4
  %132 = load ptr, ptr %7, align 8
  %133 = load ptr, ptr %8, align 8
  %134 = load ptr, ptr %13, align 8
  %135 = load i32, ptr %10, align 4
  %136 = load i16, ptr %11, align 2
  %137 = call i32 @dissect_openflow_stats_v6(ptr noundef %132, ptr noundef %133, ptr noundef %134, i32 noundef %135, i16 noundef zeroext %136)
  store i32 %137, ptr %10, align 4
  br label %138

138:                                              ; preds = %142, %5
  %139 = load i32, ptr %10, align 4
  %140 = load i32, ptr %16, align 4
  %141 = icmp slt i32 %139, %140
  br i1 %141, label %142, label %149

142:                                              ; preds = %138
  %143 = load ptr, ptr %7, align 8
  %144 = load ptr, ptr %8, align 8
  %145 = load ptr, ptr %13, align 8
  %146 = load i32, ptr %10, align 4
  %147 = load i16, ptr %11, align 2
  %148 = call i32 @dissect_openflow_instruction_v6(ptr noundef %143, ptr noundef %144, ptr noundef %145, i32 noundef %146, i16 noundef zeroext %147)
  store i32 %148, ptr %10, align 4
  br label %138, !llvm.loop !49

149:                                              ; preds = %138
  %150 = load i32, ptr %16, align 4
  %151 = load i16, ptr %11, align 2
  %152 = zext i16 %151 to i32
  %153 = icmp slt i32 %150, %152
  br i1 %153, label %154, label %161

154:                                              ; preds = %149
  %155 = load ptr, ptr %7, align 8
  %156 = load ptr, ptr %8, align 8
  %157 = load ptr, ptr %9, align 8
  %158 = load i32, ptr %10, align 4
  %159 = load i16, ptr %11, align 2
  %160 = call i32 @dissect_openflow_flow_desc_v6(ptr noundef %155, ptr noundef %156, ptr noundef %157, i32 noundef %158, i16 noundef zeroext %159)
  store i32 %160, ptr %6, align 4
  store i32 1, ptr %17, align 4
  br label %163

161:                                              ; preds = %149
  %162 = load i32, ptr %10, align 4
  store i32 %162, ptr %6, align 4
  store i32 1, ptr %17, align 4
  br label %163

163:                                              ; preds = %161, %154
  call void @llvm.lifetime.end.p0(i64 4, ptr %16) #5
  call void @llvm.lifetime.end.p0(i64 4, ptr %15) #5
  call void @llvm.lifetime.end.p0(i64 8, ptr %14) #5
  call void @llvm.lifetime.end.p0(i64 8, ptr %13) #5
  call void @llvm.lifetime.end.p0(i64 8, ptr %12) #5
  %164 = load i32, ptr %6, align 4
  ret i32 %164
}