; Function Attrs: null_pointer_is_valid sspstrong uwtable
define internal fastcc i32 @dissect_openflow_flow_desc_v6(ptr noundef %0, ptr noundef %1, ptr noundef %2, i32 noundef %3, i16 noundef zeroext %4) unnamed_addr #0 {
  %6 = alloca ptr, align 8
  %7 = alloca i32, align 4
  call void @llvm.lifetime.start.p0(i64 8, ptr nonnull %6) #4
  call void @llvm.lifetime.start.p0(i64 4, ptr nonnull %7) #4
  %8 = load i32, ptr @ett_openflow_v6_flow_desc, align 4
  %9 = call ptr @proto_tree_add_subtree(ptr noundef %2, ptr noundef %0, i32 noundef %3, i32 noundef -1, i32 noundef %8, ptr noundef nonnull %6, ptr noundef nonnull @.str.1620)
  %10 = load i32, ptr @hf_openflow_v6_flow_desc_length, align 4
  %11 = call ptr @proto_tree_add_item_ret_uint(ptr noundef %9, i32 noundef %10, ptr noundef %0, i32 noundef %3, i32 noundef 2, i32 noundef 0, ptr noundef nonnull %7)
  %12 = load i32, ptr %7, align 4
  %13 = add i32 %12, %3
  %14 = load ptr, ptr %6, align 8
  call void @proto_item_set_len(ptr noundef %14, i32 noundef %12)
  %15 = add i32 %3, 2
  %16 = load i32, ptr @hf_openflow_v6_flow_desc_pad2, align 4
  %17 = call ptr @proto_tree_add_item(ptr noundef %9, i32 noundef %16, ptr noundef %0, i32 noundef %15, i32 noundef 2, i32 noundef 0)
  %18 = add i32 %3, 4
  %19 = load i32, ptr @hf_openflow_v6_flow_desc_table_id, align 4
  %20 = call ptr @proto_tree_add_item(ptr noundef %9, i32 noundef %19, ptr noundef %0, i32 noundef %18, i32 noundef 1, i32 noundef 0)
  %21 = add i32 %3, 5
  %22 = load i32, ptr @hf_openflow_v6_flow_desc_pad, align 4
  %23 = call ptr @proto_tree_add_item(ptr noundef %9, i32 noundef %22, ptr noundef %0, i32 noundef %21, i32 noundef 1, i32 noundef 0)
  %24 = add i32 %3, 6
  %25 = load i32, ptr @hf_openflow_v6_flow_desc_priority, align 4
  %26 = call ptr @proto_tree_add_item(ptr noundef %9, i32 noundef %25, ptr noundef %0, i32 noundef %24, i32 noundef 2, i32 noundef 0)
  %27 = add i32 %3, 8
  %28 = load i32, ptr @hf_openflow_v6_flow_desc_idle_timeout, align 4
  %29 = call ptr @proto_tree_add_item(ptr noundef %9, i32 noundef %28, ptr noundef %0, i32 noundef %27, i32 noundef 2, i32 noundef 0)
  %30 = add i32 %3, 10
  %31 = load i32, ptr @hf_openflow_v6_flow_desc_hard_timeout, align 4
  %32 = call ptr @proto_tree_add_item(ptr noundef %9, i32 noundef %31, ptr noundef %0, i32 noundef %30, i32 noundef 2, i32 noundef 0)
  %33 = add i32 %3, 12
  %34 = load i32, ptr @hf_openflow_v6_flow_desc_flags, align 4
  %35 = call ptr @proto_tree_add_item(ptr noundef %9, i32 noundef %34, ptr noundef %0, i32 noundef %33, i32 noundef 2, i32 noundef 0)
  store ptr %35, ptr %6, align 8
  %36 = load i32, ptr @ett_openflow_v6_flow_desc_flags, align 4
  %37 = call ptr @proto_item_add_subtree(ptr noundef %35, i32 noundef %36)
  %38 = load i32, ptr @hf_openflow_v6_flow_desc_flags_send_flow_rem, align 4
  %39 = call ptr @proto_tree_add_item(ptr noundef %37, i32 noundef %38, ptr noundef %0, i32 noundef %33, i32 noundef 2, i32 noundef 0)
  %40 = load i32, ptr @hf_openflow_v6_flow_desc_flags_check_overlap, align 4
  %41 = call ptr @proto_tree_add_item(ptr noundef %37, i32 noundef %40, ptr noundef %0, i32 noundef %33, i32 noundef 2, i32 noundef 0)
  %42 = load i32, ptr @hf_openflow_v6_flow_desc_flags_reset_counts, align 4
  %43 = call ptr @proto_tree_add_item(ptr noundef %37, i32 noundef %42, ptr noundef %0, i32 noundef %33, i32 noundef 2, i32 noundef 0)
  %44 = load i32, ptr @hf_openflow_v6_flow_desc_flags_no_packet_counts, align 4
  %45 = call ptr @proto_tree_add_item(ptr noundef %37, i32 noundef %44, ptr noundef %0, i32 noundef %33, i32 noundef 2, i32 noundef 0)
  %46 = load i32, ptr @hf_openflow_v6_flow_desc_flags_no_byte_counts, align 4
  %47 = call ptr @proto_tree_add_item(ptr noundef %37, i32 noundef %46, ptr noundef %0, i32 noundef %33, i32 noundef 2, i32 noundef 0)
  %48 = add i32 %3, 14
  %49 = load i32, ptr @hf_openflow_v6_flow_desc_importance, align 4
  %50 = call ptr @proto_tree_add_item(ptr noundef %9, i32 noundef %49, ptr noundef %0, i32 noundef %48, i32 noundef 2, i32 noundef 0)
  %51 = add i32 %3, 16
  %52 = load i32, ptr @hf_openflow_v6_flow_desc_cookie, align 4
  %53 = call ptr @proto_tree_add_item(ptr noundef %9, i32 noundef %52, ptr noundef %0, i32 noundef %51, i32 noundef 8, i32 noundef 0)
  %54 = add i32 %3, 24
  %55 = call fastcc i32 @dissect_openflow_match_v6(ptr noundef %0, ptr noundef %1, ptr noundef %9, i32 noundef %54)
  %56 = call fastcc i32 @dissect_openflow_stats_v6(ptr noundef %0, ptr noundef %1, ptr noundef %9, i32 noundef %55)
  %57 = icmp slt i32 %56, %13
  br i1 %57, label %.lr.ph, label %._crit_edge

.lr.ph:                                           ; preds = %5, %.lr.ph
  %.08486 = phi i32 [ %58, %.lr.ph ], [ %56, %5 ]
  %58 = call fastcc i32 @dissect_openflow_instruction_v6(ptr noundef %0, ptr noundef %1, ptr noundef %9, i32 noundef %.08486)
  %59 = icmp slt i32 %58, %13
  br i1 %59, label %.lr.ph, label %._crit_edge, !llvm.loop !57

._crit_edge:                                      ; preds = %.lr.ph, %5
  %.084.lcssa = phi i32 [ %56, %5 ], [ %58, %.lr.ph ]
  %60 = zext i16 %4 to i32
  %61 = icmp slt i32 %13, %60
  br i1 %61, label %62, label %64

62:                                               ; preds = %._crit_edge
  %63 = call fastcc i32 @dissect_openflow_flow_desc_v6(ptr noundef %0, ptr noundef %1, ptr noundef %2, i32 noundef %.084.lcssa, i16 noundef zeroext %4)
  br label %64

64:                                               ; preds = %._crit_edge, %62
  %.0 = phi i32 [ %63, %62 ], [ %.084.lcssa, %._crit_edge ]
  call void @llvm.lifetime.end.p0(i64 4, ptr nonnull %7) #4
  call void @llvm.lifetime.end.p0(i64 8, ptr nonnull %6) #4
  ret i32 %.0
}